target datalayout = "e-m:e-p270:32:32-p271:32:32-p272:64:64-i64:64-i128:128-f80:128-n8:16:32:64-S128"
target triple = "x86_64-pc-linux-gnu"

%"class.std::basic_string_view" = type { i64, ptr }

@.str = private unnamed_addr constant [7 x i8] c" \09\0B\0C\0D\0A\00", align 1

; Function Attrs: mustprogress nounwind uwtable
define linkonce_odr dso_local noundef ptr @_ZNSt11char_traitsIcE4findEPKcmRS1_(ptr noundef %0, i64 noundef %1, ptr noundef nonnull align 1 dereferenceable(1) %2) #2 comdat align 2 {
  %4 = alloca ptr, align 8
  %5 = alloca ptr, align 8
  %6 = alloca i64, align 8
  %7 = alloca ptr, align 8
  store ptr %0, ptr %5, align 8, !tbaa !18
  store i64 %1, ptr %6, align 8, !tbaa !16
  store ptr %2, ptr %7, align 8, !tbaa !18
  %8 = load i64, ptr %6, align 8, !tbaa !16
  %9 = icmp eq i64 %8, 0
  br i1 %9, label %10, label %11

10:                                               ; preds = %3
  store ptr null, ptr %4, align 8
  br label %18

11:                                               ; preds = %3
  %12 = load ptr, ptr %5, align 8, !tbaa !18
  %13 = load ptr, ptr %7, align 8, !tbaa !18
  %14 = load i8, ptr %13, align 1, !tbaa !20
  %15 = sext i8 %14 to i32
  %16 = load i64, ptr %6, align 8, !tbaa !16
  %17 = call ptr @memchr(ptr noundef %12, i32 noundef %15, i64 noundef %16) #13
  store ptr %17, ptr %4, align 8
  br label %18

18:                                               ; preds = %11, %10
  %19 = load ptr, ptr %4, align 8
  ret ptr %19
}

; Function Attrs: mustprogress nounwind uwtable
define linkonce_odr dso_local noundef i64 @_ZNKSt17basic_string_viewIcSt11char_traitsIcEE13find_first_ofEPKcmm(ptr noundef nonnull align 8 dereferenceable(16) %0, ptr noundef %1, i64 noundef %2, i64 noundef %3) #2 comdat align 2 {
  %5 = alloca i64, align 8
  %6 = alloca ptr, align 8
  %7 = alloca ptr, align 8
  %8 = alloca i64, align 8
  %9 = alloca i64, align 8
  %10 = alloca ptr, align 8
  %11 = alloca i32, align 4
  store ptr %0, ptr %6, align 8, !tbaa !13
  store ptr %1, ptr %7, align 8, !tbaa !18
  store i64 %2, ptr %8, align 8, !tbaa !16
  store i64 %3, ptr %9, align 8, !tbaa !16
  %12 = load ptr, ptr %6, align 8
  br label %13

13:                                               ; preds = %39, %4
  %14 = load i64, ptr %9, align 8, !tbaa !16
  %15 = icmp ne i64 %14, 0
  br i1 %15, label %16, label %21

16:                                               ; preds = %13
  %17 = load i64, ptr %8, align 8, !tbaa !16
  %18 = getelementptr inbounds nuw %"class.std::basic_string_view", ptr %12, i32 0, i32 0
  %19 = load i64, ptr %18, align 8, !tbaa !24
  %20 = icmp ult i64 %17, %19
  br label %21

21:                                               ; preds = %16, %13
  %22 = phi i1 [ false, %13 ], [ %20, %16 ]
  br i1 %22, label %23, label %42

23:                                               ; preds = %21
  call void @llvm.lifetime.start.p0(i64 8, ptr %10) #13
  %24 = load ptr, ptr %7, align 8, !tbaa !18
  %25 = load i64, ptr %9, align 8, !tbaa !16
  %26 = getelementptr inbounds nuw %"class.std::basic_string_view", ptr %12, i32 0, i32 1
  %27 = load ptr, ptr %26, align 8, !tbaa !26
  %28 = load i64, ptr %8, align 8, !tbaa !16
  %29 = getelementptr inbounds nuw i8, ptr %27, i64 %28
  %30 = call noundef ptr @_ZNSt11char_traitsIcE4findEPKcmRS1_(ptr noundef %24, i64 noundef %25, ptr noundef nonnull align 1 dereferenceable(1) %29)
  store ptr %30, ptr %10, align 8, !tbaa !18
  %31 = load ptr, ptr %10, align 8, !tbaa !18
  %32 = icmp ne ptr %31, null
  br i1 %32, label %33, label %35

33:                                               ; preds = %23
  %34 = load i64, ptr %8, align 8, !tbaa !16
  store i64 %34, ptr %5, align 8
  store i32 1, ptr %11, align 4
  br label %36

35:                                               ; preds = %23
  store i32 0, ptr %11, align 4
  br label %36

36:                                               ; preds = %35, %33
  call void @llvm.lifetime.end.p0(i64 8, ptr %10) #13
  %37 = load i32, ptr %11, align 4
  switch i32 %37, label %45 [
    i32 0, label %38
    i32 1, label %43
  ]

38:                                               ; preds = %36
  br label %39

39:                                               ; preds = %38
  %40 = load i64, ptr %8, align 8, !tbaa !16
  %41 = add i64 %40, 1
  store i64 %41, ptr %8, align 8, !tbaa !16
  br label %13, !llvm.loop !57

42:                                               ; preds = %21
  store i64 -1, ptr %5, align 8
  br label %43

43:                                               ; preds = %42, %36
  %44 = load i64, ptr %5, align 8
  ret i64 %44

45:                                               ; preds = %36
  unreachable
}

; Function Attrs: mustprogress nounwind uwtable
define linkonce_odr dso_local noundef i64 @_ZNKSt17basic_string_viewIcSt11char_traitsIcEE13find_first_ofES2_m(ptr noundef nonnull align 8 dereferenceable(16) %0, i64 %1, ptr %2, i64 noundef %3) #2 comdat align 2 {
  %5 = alloca %"class.std::basic_string_view", align 8
  %6 = alloca ptr, align 8
  %7 = alloca i64, align 8
  %8 = getelementptr inbounds nuw { i64, ptr }, ptr %5, i32 0, i32 0
  store i64 %1, ptr %8, align 8
  %9 = getelementptr inbounds nuw { i64, ptr }, ptr %5, i32 0, i32 1
  store ptr %2, ptr %9, align 8
  store ptr %0, ptr %6, align 8, !tbaa !13
  store i64 %3, ptr %7, align 8, !tbaa !16
  %10 = load ptr, ptr %6, align 8
  %11 = getelementptr inbounds nuw %"class.std::basic_string_view", ptr %5, i32 0, i32 1
  %12 = load ptr, ptr %11, align 8, !tbaa !26
  %13 = load i64, ptr %7, align 8, !tbaa !16
  %14 = getelementptr inbounds nuw %"class.std::basic_string_view", ptr %5, i32 0, i32 0
  %15 = load i64, ptr %14, align 8, !tbaa !24
  %16 = call noundef i64 @_ZNKSt17basic_string_viewIcSt11char_traitsIcEE13find_first_ofEPKcmm(ptr noundef nonnull align 8 dereferenceable(16) %10, ptr noundef %12, i64 noundef %13, i64 noundef %15) #13
  ret i64 %16
}

; Function Attrs: mustprogress nounwind uwtable
define internal noundef i64 @_ZN4absl12_GLOBAL__N_111AnyOfPolicy6LengthESt17basic_string_viewIcSt11char_traitsIcEE(i64 %0, ptr %1) #2 align 2 {
  %3 = alloca %"class.std::basic_string_view", align 8
  %4 = getelementptr inbounds nuw { i64, ptr }, ptr %3, i32 0, i32 0
  store i64 %0, ptr %4, align 8
  %5 = getelementptr inbounds nuw { i64, ptr }, ptr %3, i32 0, i32 1
  store ptr %1, ptr %5, align 8
  ret i64 1
}

; Function Attrs: mustprogress nounwind uwtable
define internal noundef i64 @_ZN4absl12_GLOBAL__N_111AnyOfPolicy4FindESt17basic_string_viewIcSt11char_traitsIcEES5_m(i64 %0, ptr %1, i64 %2, ptr %3, i64 noundef %4) #2 align 2 {
  %6 = alloca %"class.std::basic_string_view", align 8
  %7 = alloca %"class.std::basic_string_view", align 8
  %8 = alloca i64, align 8
  %9 = alloca %"class.std::basic_string_view", align 8
  %10 = getelementptr inbounds nuw { i64, ptr }, ptr %6, i32 0, i32 0
  store i64 %0, ptr %10, align 8
  %11 = getelementptr inbounds nuw { i64, ptr }, ptr %6, i32 0, i32 1
  store ptr %1, ptr %11, align 8
  %12 = getelementptr inbounds nuw { i64, ptr }, ptr %7, i32 0, i32 0
  store i64 %2, ptr %12, align 8
  %13 = getelementptr inbounds nuw { i64, ptr }, ptr %7, i32 0, i32 1
  store ptr %3, ptr %13, align 8
  store i64 %4, ptr %8, align 8, !tbaa !16
  call void @llvm.memcpy.p0.p0.i64(ptr align 8 %9, ptr align 8 %7, i64 16, i1 false), !tbaa.struct !15
  %14 = load i64, ptr %8, align 8, !tbaa !16
  %15 = getelementptr inbounds nuw { i64, ptr }, ptr %9, i32 0, i32 0
  %16 = load i64, ptr %15, align 8
  %17 = getelementptr inbounds nuw { i64, ptr }, ptr %9, i32 0, i32 1
  %18 = load ptr, ptr %17, align 8
  %19 = call noundef i64 @_ZNKSt17basic_string_viewIcSt11char_traitsIcEE13find_first_ofES2_m(ptr noundef nonnull align 8 dereferenceable(16) %6, i64 %16, ptr %18, i64 noundef %14) #13
  ret i64 %19
}

; Function Attrs: mustprogress nounwind uwtable
define linkonce_odr dso_local noundef i64 @_ZNKSt17basic_string_viewIcSt11char_traitsIcEE4sizeEv(ptr noundef nonnull align 8 dereferenceable(16) %0) #2 comdat align 2 {
  %2 = alloca ptr, align 8
  store ptr %0, ptr %2, align 8, !tbaa !13
  %3 = load ptr, ptr %2, align 8
  %4 = getelementptr inbounds nuw %"class.std::basic_string_view", ptr %3, i32 0, i32 0
  %5 = load i64, ptr %4, align 8, !tbaa !24
  ret i64 %5
}

; Function Attrs: mustprogress nounwind uwtable
define linkonce_odr dso_local void @_ZNSt17basic_string_viewIcSt11char_traitsIcEEC2EPKcm(ptr noundef nonnull align 8 dereferenceable(16) %0, ptr noundef %1, i64 noundef %2) unnamed_addr #2 comdat align 2 {
  %4 = alloca ptr, align 8
  %5 = alloca ptr, align 8
  %6 = alloca i64, align 8
  store ptr %0, ptr %4, align 8, !tbaa !13
  store ptr %1, ptr %5, align 8, !tbaa !18
  store i64 %2, ptr %6, align 8, !tbaa !16
  %7 = load ptr, ptr %4, align 8
  %8 = getelementptr inbounds nuw %"class.std::basic_string_view", ptr %7, i32 0, i32 0
  %9 = load i64, ptr %6, align 8, !tbaa !16
  store i64 %9, ptr %8, align 8, !tbaa !24
  %10 = getelementptr inbounds nuw %"class.std::basic_string_view", ptr %7, i32 0, i32 1
  %11 = load ptr, ptr %5, align 8, !tbaa !18
  store ptr %11, ptr %10, align 8, !tbaa !26
  ret void
}

; Function Attrs: mustprogress nounwind uwtable
define linkonce_odr dso_local noundef ptr @_ZNKSt17basic_string_viewIcSt11char_traitsIcEE4dataEv(ptr noundef nonnull align 8 dereferenceable(16) %0) #2 comdat align 2 {
  %2 = alloca ptr, align 8
  store ptr %0, ptr %2, align 8, !tbaa !13
  %3 = load ptr, ptr %2, align 8
  %4 = getelementptr inbounds nuw %"class.std::basic_string_view", ptr %3, i32 0, i32 1
  %5 = load ptr, ptr %4, align 8, !tbaa !26
  ret ptr %5
}

; Function Attrs: mustprogress nounwind uwtable
define linkonce_odr dso_local noundef i64 @_ZNKSt17basic_string_viewIcSt11char_traitsIcEE6lengthEv(ptr noundef nonnull align 8 dereferenceable(16) %0) #2 comdat align 2 {
  %2 = alloca ptr, align 8
  store ptr %0, ptr %2, align 8, !tbaa !13
  %3 = load ptr, ptr %2, align 8
  %4 = getelementptr inbounds nuw %"class.std::basic_string_view", ptr %3, i32 0, i32 0
  %5 = load i64, ptr %4, align 8, !tbaa !24
  ret i64 %5
}

; Function Attrs: mustprogress nounwind uwtable
define linkonce_odr dso_local noundef zeroext i1 @_ZNKSt17basic_string_viewIcSt11char_traitsIcEE5emptyEv(ptr noundef nonnull align 8 dereferenceable(16) %0) #2 comdat align 2 {
  %2 = alloca ptr, align 8
  store ptr %0, ptr %2, align 8, !tbaa !13
  %3 = load ptr, ptr %2, align 8
  %4 = getelementptr inbounds nuw %"class.std::basic_string_view", ptr %3, i32 0, i32 0
  %5 = load i64, ptr %4, align 8, !tbaa !24
  %6 = icmp eq i64 %5, 0
  ret i1 %6
}

; Function Attrs: noinline noreturn nounwind uwtable
define linkonce_odr hidden void @__clang_call_terminate(ptr noundef %0) #7 comdat {
  %2 = call ptr @__cxa_begin_catch(ptr %0) #13
  call void @_ZSt9terminatev() #14
  unreachable
}

; Function Attrs: mustprogress nounwind uwtable
define linkonce_odr dso_local noundef i64 @_ZNSt11char_traitsIcE6lengthEPKc(ptr noundef %0) #2 comdat align 2 {
  %2 = alloca ptr, align 8
  store ptr %0, ptr %2, align 8, !tbaa !18
  %3 = load ptr, ptr %2, align 8, !tbaa !18
  %4 = call i64 @strlen(ptr noundef %3) #13
  ret i64 %4
}

; Function Attrs: mustprogress uwtable
define internal { i64, ptr } @_ZN4absl12_GLOBAL__N_111GenericFindINS0_11AnyOfPolicyEEESt17basic_string_viewIcSt11char_traitsIcEES6_S6_mT_(i64 %0, ptr %1, i64 %2, ptr %3, i64 noundef %4) #0 {
  %6 = alloca %"class.std::basic_string_view", align 8
  %7 = alloca %"class.std::basic_string_view", align 8
  %8 = alloca %"class.std::basic_string_view", align 8
  %9 = alloca i64, align 8
  %10 = alloca i64, align 8
  %11 = alloca %"class.std::basic_string_view", align 8
  %12 = alloca %"class.std::basic_string_view", align 8
  %13 = alloca %"class.std::basic_string_view", align 8
  %14 = alloca %"class.std::basic_string_view", align 8
  %15 = getelementptr inbounds nuw { i64, ptr }, ptr %7, i32 0, i32 0
  store i64 %0, ptr %15, align 8
  %16 = getelementptr inbounds nuw { i64, ptr }, ptr %7, i32 0, i32 1
  store ptr %1, ptr %16, align 8
  %17 = getelementptr inbounds nuw { i64, ptr }, ptr %8, i32 0, i32 0
  store i64 %2, ptr %17, align 8
  %18 = getelementptr inbounds nuw { i64, ptr }, ptr %8, i32 0, i32 1
  store ptr %3, ptr %18, align 8
  store i64 %4, ptr %9, align 8, !tbaa !16
  %19 = call noundef zeroext i1 @_ZNKSt17basic_string_viewIcSt11char_traitsIcEE5emptyEv(ptr noundef nonnull align 8 dereferenceable(16) %8) #13
  br i1 %19, label %20, label %28

20:                                               ; preds = %5
  %21 = call noundef i64 @_ZNKSt17basic_string_viewIcSt11char_traitsIcEE6lengthEv(ptr noundef nonnull align 8 dereferenceable(16) %7) #13
  %22 = icmp ugt i64 %21, 0
  br i1 %22, label %23, label %28

23:                                               ; preds = %20
  %24 = call noundef ptr @_ZNKSt17basic_string_viewIcSt11char_traitsIcEE4dataEv(ptr noundef nonnull align 8 dereferenceable(16) %7) #13
  %25 = load i64, ptr %9, align 8, !tbaa !16
  %26 = getelementptr inbounds nuw i8, ptr %24, i64 %25
  %27 = getelementptr inbounds i8, ptr %26, i64 1
  call void @_ZNSt17basic_string_viewIcSt11char_traitsIcEEC2EPKcm(ptr noundef nonnull align 8 dereferenceable(16) %6, ptr noundef %27, i64 noundef 0) #13
  br label %54

28:                                               ; preds = %20, %5
  call void @llvm.lifetime.start.p0(i64 8, ptr %10) #13
  store i64 -1, ptr %10, align 8, !tbaa !16
  %29 = call noundef ptr @_ZNKSt17basic_string_viewIcSt11char_traitsIcEE4dataEv(ptr noundef nonnull align 8 dereferenceable(16) %7) #13
  %30 = call noundef i64 @_ZNKSt17basic_string_viewIcSt11char_traitsIcEE4sizeEv(ptr noundef nonnull align 8 dereferenceable(16) %7) #13
  %31 = getelementptr inbounds nuw i8, ptr %29, i64 %30
  call void @_ZNSt17basic_string_viewIcSt11char_traitsIcEEC2EPKcm(ptr noundef nonnull align 8 dereferenceable(16) %6, ptr noundef %31, i64 noundef 0) #13
  call void @llvm.memcpy.p0.p0.i64(ptr align 8 %11, ptr align 8 %7, i64 16, i1 false), !tbaa.struct !15
  call void @llvm.memcpy.p0.p0.i64(ptr align 8 %12, ptr align 8 %8, i64 16, i1 false), !tbaa.struct !15
  %32 = load i64, ptr %9, align 8, !tbaa !16
  %33 = getelementptr inbounds nuw { i64, ptr }, ptr %11, i32 0, i32 0
  %34 = load i64, ptr %33, align 8
  %35 = getelementptr inbounds nuw { i64, ptr }, ptr %11, i32 0, i32 1
  %36 = load ptr, ptr %35, align 8
  %37 = getelementptr inbounds nuw { i64, ptr }, ptr %12, i32 0, i32 0
  %38 = load i64, ptr %37, align 8
  %39 = getelementptr inbounds nuw { i64, ptr }, ptr %12, i32 0, i32 1
  %40 = load ptr, ptr %39, align 8
  %41 = call noundef i64 @_ZN4absl12_GLOBAL__N_111AnyOfPolicy4FindESt17basic_string_viewIcSt11char_traitsIcEES5_m(i64 %34, ptr %36, i64 %38, ptr %40, i64 noundef %32)
  store i64 %41, ptr %10, align 8, !tbaa !16
  %42 = load i64, ptr %10, align 8, !tbaa !16
  %43 = icmp ne i64 %42, -1
  br i1 %43, label %44, label %53

44:                                               ; preds = %28
  call void @llvm.lifetime.start.p0(i64 16, ptr %13) #13
  %45 = call noundef ptr @_ZNKSt17basic_string_viewIcSt11char_traitsIcEE4dataEv(ptr noundef nonnull align 8 dereferenceable(16) %7) #13
  %46 = load i64, ptr %10, align 8, !tbaa !16
  %47 = getelementptr inbounds nuw i8, ptr %45, i64 %46
  call void @llvm.memcpy.p0.p0.i64(ptr align 8 %14, ptr align 8 %8, i64 16, i1 false), !tbaa.struct !15
  %48 = getelementptr inbounds nuw { i64, ptr }, ptr %14, i32 0, i32 0
  %49 = load i64, ptr %48, align 8
  %50 = getelementptr inbounds nuw { i64, ptr }, ptr %14, i32 0, i32 1
  %51 = load ptr, ptr %50, align 8
  %52 = call noundef i64 @_ZN4absl12_GLOBAL__N_111AnyOfPolicy6LengthESt17basic_string_viewIcSt11char_traitsIcEE(i64 %49, ptr %51)
  call void @_ZNSt17basic_string_viewIcSt11char_traitsIcEEC2EPKcm(ptr noundef nonnull align 8 dereferenceable(16) %13, ptr noundef %47, i64 noundef %52) #13
  call void @llvm.memcpy.p0.p0.i64(ptr align 8 %6, ptr align 8 %13, i64 16, i1 false), !tbaa.struct !15
  call void @llvm.lifetime.end.p0(i64 16, ptr %13) #13
  br label %53

53:                                               ; preds = %44, %28
  call void @llvm.lifetime.end.p0(i64 8, ptr %10) #13
  br label %54

54:                                               ; preds = %53, %23
  %55 = load { i64, ptr }, ptr %6, align 8
  ret { i64, ptr } %55
}

; Function Attrs: mustprogress nounwind uwtable
define linkonce_odr dso_local void @_ZNSt17basic_string_viewIcSt11char_traitsIcEEC2EPKc(ptr noundef nonnull align 8 dereferenceable(16) %0, ptr noundef nonnull %1) unnamed_addr #2 comdat align 2 personality ptr @__gxx_personality_v0 {
  %3 = alloca ptr, align 8
  %4 = alloca ptr, align 8
  store ptr %0, ptr %3, align 8, !tbaa !13
  store ptr %1, ptr %4, align 8, !tbaa !18
  %5 = load ptr, ptr %3, align 8
  %6 = getelementptr inbounds nuw %"class.std::basic_string_view", ptr %5, i32 0, i32 0
  %7 = load ptr, ptr %4, align 8, !tbaa !18
  %8 = invoke noundef i64 @_ZNSt11char_traitsIcE6lengthEPKc(ptr noundef %7)
          to label %9 unwind label %12

9:                                                ; preds = %2
  store i64 %8, ptr %6, align 8, !tbaa !24
  %10 = getelementptr inbounds nuw %"class.std::basic_string_view", ptr %5, i32 0, i32 1
  %11 = load ptr, ptr %4, align 8, !tbaa !18
  store ptr %11, ptr %10, align 8, !tbaa !26
  ret void

12:                                               ; preds = %2
  %13 = landingpad { ptr, i32 }
          catch ptr null
  %14 = extractvalue { ptr, i32 } %13, 0
  call void @__clang_call_terminate(ptr %14) #14
  unreachable
}

; Function Attrs: mustprogress uwtable
define dso_local { i64, ptr } @_ZNK4absl17ByAsciiWhitespace4FindESt17basic_string_viewIcSt11char_traitsIcEEm(ptr noundef nonnull align 1 dereferenceable(1) %0, i64 %1, ptr %2, i64 noundef %3) #0 align 2 {
  %5 = alloca %"class.std::basic_string_view", align 8
  %6 = alloca %"class.std::basic_string_view", align 8
  %7 = alloca ptr, align 8
  %8 = alloca i64, align 8
  %9 = alloca %"class.std::basic_string_view", align 8
  %10 = alloca %"class.std::basic_string_view", align 8
  %11 = getelementptr inbounds nuw { i64, ptr }, ptr %6, i32 0, i32 0
  store i64 %1, ptr %11, align 8
  %12 = getelementptr inbounds nuw { i64, ptr }, ptr %6, i32 0, i32 1
  store ptr %2, ptr %12, align 8
  store ptr %0, ptr %7, align 8, !tbaa !27
  store i64 %3, ptr %8, align 8, !tbaa !16
  call void @llvm.memcpy.p0.p0.i64(ptr align 8 %9, ptr align 8 %6, i64 16, i1 false), !tbaa.struct !15
  call void @_ZNSt17basic_string_viewIcSt11char_traitsIcEEC2EPKc(ptr noundef nonnull align 8 dereferenceable(16) %10, ptr noundef @.str) #13
  %13 = load i64, ptr %8, align 8, !tbaa !16
  %14 = getelementptr inbounds nuw { i64, ptr }, ptr %9, i32 0, i32 0
  %15 = load i64, ptr %14, align 8
  %16 = getelementptr inbounds nuw { i64, ptr }, ptr %9, i32 0, i32 1
  %17 = load ptr, ptr %16, align 8
  %18 = getelementptr inbounds nuw { i64, ptr }, ptr %10, i32 0, i32 0
  %19 = load i64, ptr %18, align 8
  %20 = getelementptr inbounds nuw { i64, ptr }, ptr %10, i32 0, i32 1
  %21 = load ptr, ptr %20, align 8
  %22 = call { i64, ptr } @_ZN4absl12_GLOBAL__N_111GenericFindINS0_11AnyOfPolicyEEESt17basic_string_viewIcSt11char_traitsIcEES6_S6_mT_(i64 %15, ptr %17, i64 %19, ptr %21, i64 noundef %13)
  %23 = getelementptr inbounds nuw { i64, ptr }, ptr %5, i32 0, i32 0
  %24 = extractvalue { i64, ptr } %22, 0
  store i64 %24, ptr %23, align 8
  %25 = getelementptr inbounds nuw { i64, ptr }, ptr %5, i32 0, i32 1
  %26 = extractvalue { i64, ptr } %22, 1
  store ptr %26, ptr %25, align 8
  %27 = load { i64, ptr }, ptr %5, align 8
  ret { i64, ptr } %27
}