; Function Attrs: mustprogress nofree norecurse nosync nounwind willreturn memory(argmem: read) uwtable
define dso_local { i64, ptr } @_ZNK4absl17ByAsciiWhitespace4FindESt17basic_string_viewIcSt11char_traitsIcEEm(ptr noundef nonnull readnone align 1 captures(none) dereferenceable(1) %0, i64 %1, ptr %2, i64 noundef %3) local_unnamed_addr #3 align 2 personality ptr @__gxx_personality_v0 {
  %5 = getelementptr inbounds nuw i8, ptr %2, i64 %1
  %6 = icmp ult i64 %3, %1
  br i1 %6, label %_ZNSt11char_traitsIcE4findEPKcmRS1_.exit.i.i.i.i, label %_ZN4absl12_GLOBAL__N_111GenericFindINS0_11AnyOfPolicyEEESt17basic_string_viewIcSt11char_traitsIcEES6_S6_mT_.exit

_ZNSt11char_traitsIcE4findEPKcmRS1_.exit.i.i.i.i: ; preds = %4, %12
  %.01116.i.i.i.i = phi i64 [ %13, %12 ], [ %3, %4 ]
  %7 = getelementptr inbounds nuw i8, ptr %2, i64 %.01116.i.i.i.i
  %8 = load i8, ptr %7, align 1, !tbaa !14
  %9 = zext nneg i8 %8 to i64
  %memchr.bounds = icmp ugt i8 %8, 63
  %10 = shl nuw i64 1, %9
  %11 = and i64 %10, 4294983168
  %memchr.bits = icmp eq i64 %11, 0
  %memchr.not = select i1 %memchr.bounds, i1 true, i1 %memchr.bits
  br i1 %memchr.not, label %12, label %_ZN4absl12_GLOBAL__N_111AnyOfPolicy4FindESt17basic_string_viewIcSt11char_traitsIcEES5_m.exit.i

12:                                               ; preds = %_ZNSt11char_traitsIcE4findEPKcmRS1_.exit.i.i.i.i
  %13 = add i64 %.01116.i.i.i.i, 1
  %exitcond.not.i.i.i.i = icmp eq i64 %13, %1
  br i1 %exitcond.not.i.i.i.i, label %_ZN4absl12_GLOBAL__N_111GenericFindINS0_11AnyOfPolicyEEESt17basic_string_viewIcSt11char_traitsIcEES6_S6_mT_.exit, label %_ZNSt11char_traitsIcE4findEPKcmRS1_.exit.i.i.i.i, !llvm.loop !18

_ZN4absl12_GLOBAL__N_111AnyOfPolicy4FindESt17basic_string_viewIcSt11char_traitsIcEES5_m.exit.i: ; preds = %_ZNSt11char_traitsIcE4findEPKcmRS1_.exit.i.i.i.i
  %14 = getelementptr inbounds nuw i8, ptr %2, i64 %.01116.i.i.i.i
  %.not8.i = icmp ne i64 %.01116.i.i.i.i, -1
  %spec.select.i = zext i1 %.not8.i to i64
  %spec.select26.i = select i1 %.not8.i, ptr %14, ptr %5
  br label %_ZN4absl12_GLOBAL__N_111GenericFindINS0_11AnyOfPolicyEEESt17basic_string_viewIcSt11char_traitsIcEES6_S6_mT_.exit

_ZN4absl12_GLOBAL__N_111GenericFindINS0_11AnyOfPolicyEEESt17basic_string_viewIcSt11char_traitsIcEES6_S6_mT_.exit: ; preds = %12, %4, %_ZN4absl12_GLOBAL__N_111AnyOfPolicy4FindESt17basic_string_viewIcSt11char_traitsIcEES5_m.exit.i
  %.sroa.020.0.i = phi i64 [ 0, %4 ], [ %spec.select.i, %_ZN4absl12_GLOBAL__N_111AnyOfPolicy4FindESt17basic_string_viewIcSt11char_traitsIcEES5_m.exit.i ], [ 0, %12 ]
  %.sroa.421.0.i = phi ptr [ %5, %4 ], [ %spec.select26.i, %_ZN4absl12_GLOBAL__N_111AnyOfPolicy4FindESt17basic_string_viewIcSt11char_traitsIcEES5_m.exit.i ], [ %5, %12 ]
  %.fca.0.insert.i = insertvalue { i64, ptr } poison, i64 %.sroa.020.0.i, 0
  %.fca.1.insert.i = insertvalue { i64, ptr } %.fca.0.insert.i, ptr %.sroa.421.0.i, 1
  ret { i64, ptr } %.fca.1.insert.i
}